target datalayout = "e-m:e-p270:32:32-p271:32:32-p272:64:64-i64:64-i128:128-f80:128-n8:16:32:64-S128"
target triple = "x86_64-pc-linux-gnu"

@hf_mpeg_descr_partial_transport_stream_reserved_future_use1 = internal global i32 0, align 4
@hf_mpeg_descr_partial_transport_stream_peak_rate = internal global i32 0, align 4
@hf_mpeg_descr_partial_transport_stream_reserved_future_use2 = internal global i32 0, align 4
@hf_mpeg_descr_partial_transport_stream_minimum_overall_smoothing_rate = internal global i32 0, align 4
@hf_mpeg_descr_partial_transport_stream_reserved_future_use3 = internal global i32 0, align 4
@hf_mpeg_descr_partial_transport_stream_maximum_overall_smoothing_buffer = internal global i32 0, align 4
@.str.760 = private unnamed_addr constant [10 x i8] c"%u bits/s\00", align 1
@.str.761 = private unnamed_addr constant [22 x i8] c"Underfined (0x3FFFFF)\00", align 1
@.str.762 = private unnamed_addr constant [20 x i8] c"Underfined (0x3FFF)\00", align 1
@.str.763 = private unnamed_addr constant [9 x i8] c"%u bytes\00", align 1

; Function Attrs: null_pointer_is_valid sspstrong uwtable
define internal void @proto_mpeg_descriptor_dissect_partial_transport_stream(ptr noundef %0, i32 noundef %1, i32 noundef %2, ptr noundef %3) #1 {
  %5 = alloca ptr, align 8
  %6 = alloca i32, align 4
  %7 = alloca i32, align 4
  %8 = alloca ptr, align 8
  %9 = alloca i32, align 4
  %10 = alloca i32, align 4
  %11 = alloca i32, align 4
  %12 = alloca i32, align 4
  store ptr %0, ptr %5, align 8
  store i32 %1, ptr %6, align 4
  store i32 %2, ptr %7, align 4
  store ptr %3, ptr %8, align 8
  call void @llvm.lifetime.start.p0(i64 4, ptr %9) #4
  %13 = load i32, ptr %7, align 4
  store i32 %13, ptr %9, align 4
  %14 = load i32, ptr %9, align 4
  %15 = icmp ult i32 %14, 3
  br i1 %15, label %16, label %17

16:                                               ; preds = %4
  store i32 1, ptr %10, align 4
  br label %98

17:                                               ; preds = %4
  %18 = load ptr, ptr %8, align 8
  %19 = load i32, ptr @hf_mpeg_descr_partial_transport_stream_reserved_future_use1, align 4
  %20 = load ptr, ptr %5, align 8
  %21 = load i32, ptr %6, align 4
  %22 = call ptr @proto_tree_add_item(ptr noundef %18, i32 noundef %19, ptr noundef %20, i32 noundef %21, i32 noundef 3, i32 noundef 0)
  call void @llvm.lifetime.start.p0(i64 4, ptr %11) #4
  %23 = load ptr, ptr %5, align 8
  %24 = load i32, ptr %6, align 4
  %25 = call i32 @tvb_get_uint24(ptr noundef %23, i32 noundef %24, i32 noundef 0)
  %26 = and i32 %25, 4194303
  store i32 %26, ptr %11, align 4
  %27 = load ptr, ptr %8, align 8
  %28 = load i32, ptr @hf_mpeg_descr_partial_transport_stream_peak_rate, align 4
  %29 = load ptr, ptr %5, align 8
  %30 = load i32, ptr %6, align 4
  %31 = mul i32 %30, 8
  %32 = add i32 %31, 2
  %33 = load i32, ptr %11, align 4
  %34 = load i32, ptr %11, align 4
  %35 = mul i32 %34, 400
  %36 = call ptr (ptr, i32, ptr, i32, i32, i32, i32, ptr, ...) @proto_tree_add_uint_bits_format_value(ptr noundef %27, i32 noundef %28, ptr noundef %29, i32 noundef %32, i32 noundef 22, i32 noundef %33, i32 noundef 0, ptr noundef @.str.760, i32 noundef %35)
  %37 = load i32, ptr %6, align 4
  %38 = add i32 %37, 3
  store i32 %38, ptr %6, align 4
  %39 = load i32, ptr %9, align 4
  %40 = sub i32 %39, 3
  store i32 %40, ptr %9, align 4
  %41 = load i32, ptr %9, align 4
  %42 = icmp ult i32 %41, 3
  br i1 %42, label %43, label %44

43:                                               ; preds = %17
  store i32 1, ptr %10, align 4
  br label %97

44:                                               ; preds = %17
  %45 = load ptr, ptr %8, align 8
  %46 = load i32, ptr @hf_mpeg_descr_partial_transport_stream_reserved_future_use2, align 4
  %47 = load ptr, ptr %5, align 8
  %48 = load i32, ptr %6, align 4
  %49 = call ptr @proto_tree_add_item(ptr noundef %45, i32 noundef %46, ptr noundef %47, i32 noundef %48, i32 noundef 3, i32 noundef 0)
  %50 = load ptr, ptr %5, align 8
  %51 = load i32, ptr %6, align 4
  %52 = call i32 @tvb_get_uint24(ptr noundef %50, i32 noundef %51, i32 noundef 0)
  %53 = and i32 %52, 4194303
  store i32 %53, ptr %11, align 4
  %54 = load ptr, ptr %8, align 8
  %55 = load i32, ptr @hf_mpeg_descr_partial_transport_stream_minimum_overall_smoothing_rate, align 4
  %56 = load ptr, ptr %5, align 8
  %57 = load i32, ptr %6, align 4
  %58 = mul i32 %57, 8
  %59 = add i32 %58, 2
  %60 = load i32, ptr %11, align 4
  %61 = load i32, ptr %11, align 4
  %62 = icmp eq i32 %61, 4194303
  %63 = select i1 %62, ptr @.str.761, ptr @.str.760
  %64 = load i32, ptr %11, align 4
  %65 = mul i32 %64, 400
  %66 = call ptr (ptr, i32, ptr, i32, i32, i32, i32, ptr, ...) @proto_tree_add_uint_bits_format_value(ptr noundef %54, i32 noundef %55, ptr noundef %56, i32 noundef %59, i32 noundef 22, i32 noundef %60, i32 noundef 0, ptr noundef %63, i32 noundef %65)
  %67 = load i32, ptr %6, align 4
  %68 = add i32 %67, 3
  store i32 %68, ptr %6, align 4
  %69 = load i32, ptr %9, align 4
  %70 = sub i32 %69, 3
  store i32 %70, ptr %9, align 4
  %71 = load i32, ptr %9, align 4
  %72 = icmp ult i32 %71, 2
  br i1 %72, label %73, label %74

73:                                               ; preds = %44
  store i32 1, ptr %10, align 4
  br label %97

74:                                               ; preds = %44
  %75 = load ptr, ptr %8, align 8
  %76 = load i32, ptr @hf_mpeg_descr_partial_transport_stream_reserved_future_use3, align 4
  %77 = load ptr, ptr %5, align 8
  %78 = load i32, ptr %6, align 4
  %79 = call ptr @proto_tree_add_item(ptr noundef %75, i32 noundef %76, ptr noundef %77, i32 noundef %78, i32 noundef 2, i32 noundef 0)
  call void @llvm.lifetime.start.p0(i64 4, ptr %12) #4
  %80 = load ptr, ptr %5, align 8
  %81 = load i32, ptr %6, align 4
  %82 = call zeroext i16 @tvb_get_uint16(ptr noundef %80, i32 noundef %81, i32 noundef 0)
  %83 = zext i16 %82 to i32
  %84 = and i32 %83, 16383
  store i32 %84, ptr %12, align 4
  %85 = load ptr, ptr %8, align 8
  %86 = load i32, ptr @hf_mpeg_descr_partial_transport_stream_maximum_overall_smoothing_buffer, align 4
  %87 = load ptr, ptr %5, align 8
  %88 = load i32, ptr %6, align 4
  %89 = mul i32 %88, 8
  %90 = add i32 %89, 2
  %91 = load i32, ptr %12, align 4
  %92 = load i32, ptr %12, align 4
  %93 = icmp eq i32 %92, 16383
  %94 = select i1 %93, ptr @.str.762, ptr @.str.763
  %95 = load i32, ptr %12, align 4
  %96 = call ptr (ptr, i32, ptr, i32, i32, i32, i32, ptr, ...) @proto_tree_add_uint_bits_format_value(ptr noundef %85, i32 noundef %86, ptr noundef %87, i32 noundef %90, i32 noundef 14, i32 noundef %91, i32 noundef 0, ptr noundef %94, i32 noundef %95)
  call void @llvm.lifetime.end.p0(i64 4, ptr %12) #4
  store i32 0, ptr %10, align 4
  br label %97

97:                                               ; preds = %74, %73, %43
  call void @llvm.lifetime.end.p0(i64 4, ptr %11) #4
  br label %98

98:                                               ; preds = %97, %16
  call void @llvm.lifetime.end.p0(i64 4, ptr %9) #4
  %99 = load i32, ptr %10, align 4
  switch i32 %99, label %101 [
    i32 0, label %100
    i32 1, label %100
  ]

100:                                              ; preds = %98, %98
  ret void

101:                                              ; preds = %98
  unreachable
}